(dp0
S'achr_num'
p1
I190
sS'achr_id'
p2
(lp3
I132
aI134
aI164
aI165
aI170
aI171
aI258
aI272
aI274
aI413
aI3163
aI3644
aI3645
aI3675
aI3676
aI3682
aI3683
aI3770
aI3783
aI3786
aI1619
aI1622
aI1645
aI1648
aI1649
aI1652
aI1653
aI1656
aI1684
aI1696
aI1703
aI1706
aI1731
aI1733
aI1740
aI1747
aI1751
aI3013
aI5088
aI5089
aI5114
aI5115
aI5118
aI5119
aI5122
aI5123
aI5152
aI5165
aI5172
aI5173
aI5200
aI5201
aI5208
aI5214
aI5220
aI6471
aI2102
aI2103
aI2104
aI2105
aI2106
aI2108
aI2109
aI2110
aI2112
aI2147
aI2148
aI2206
aI2208
aI2230
aI2235
aI2241
aI5563
aI5564
aI5565
aI5566
aI5567
aI5568
aI5570
aI5572
aI5573
aI5608
aI5609
aI5668
aI5669
aI5691
aI5696
aI5702
aI809
aI810
aI822
aI866
aI869
aI1246
aI1247
aI1450
aI1799
aI1802
aI1803
aI1804
aI1805
aI1806
aI3085
aI3091
aI3108
aI3109
aI3115
aI3120
aI4296
aI4297
aI4311
aI4352
aI4353
aI4729
aI4730
aI4923
aI5262
aI5265
aI5266
aI5267
aI5268
aI6508
aI6515
aI6530
aI6531
aI6538
aI995
aI998
aI999
aI1002
aI1004
aI1005
aI1008
aI1010
aI1012
aI1015
aI1016
aI1018
aI1019
aI1043
aI1044
aI1148
aI1522
aI4481
aI4482
aI4485
aI4486
aI4491
aI4492
aI4493
aI4495
aI4498
aI4500
aI4501
aI4505
aI4506
aI4529
aI4532
aI4634
aI4993
aI3176
aI3177
aI3182
aI3183
aI3185
aI3188
aI3190
aI3193
aI3194
aI3195
aI3196
aI3206
aI3319
aI3322
aI3323
aI6575
aI6576
aI6581
aI6582
aI6585
aI6586
aI6590
aI6593
aI6594
aI6595
aI6597
aI6605
aI6720
aI6722
aI6723
as.